; Function Attrs: mustprogress uwtable
define noundef i64 @_ZNK6casadi10ConstantMX12n_primitivesEv(ptr noundef nonnull align 8 dereferenceable(64) %0) unnamed_addr #3 align 2 {
  %2 = load ptr, ptr %0, align 8
  %3 = getelementptr inbounds i8, ptr %2, i64 352
  %4 = load ptr, ptr %3, align 8
  %5 = tail call noundef nonnull align 8 dereferenceable(8) ptr %4(ptr noundef nonnull align 8 dereferenceable(64) %0, i64 noundef 0)
  %6 = tail call noundef i64 @_ZNK6casadi8Sparsity3nnzEv(ptr noundef nonnull align 8 dereferenceable(8) %5)
  %7 = icmp eq i64 %6, 0
  br i1 %7, label %10, label %8

8:                                                ; preds = %1
  %9 = tail call noundef i64 @_ZNK6casadi6MXNode12n_primitivesEv(ptr noundef nonnull align 8 dereferenceable(64) %0)
  br label %10

10:                                               ; preds = %1, %8
  %.0 = phi i64 [ %9, %8 ], [ 0, %1 ]
  ret i64 %.0
}